target datalayout = "e-m:e-p270:32:32-p271:32:32-p272:64:64-i64:64-i128:128-f80:128-n8:16:32:64-S128"
target triple = "x86_64-pc-linux-gnu"

%class.ProjNode = type <{ %class.Node.base, i32, i8, [7 x i8] }>
%class.Node.base = type <{ ptr, ptr, ptr, i32, i32, i32, i32, i32, i32, i32 }>
%class.Node = type <{ ptr, ptr, ptr, i32, i32, i32, i32, i32, i32, i32, [4 x i8] }>

; Function Attrs: mustprogress nounwind uwtable
define linkonce_odr hidden noundef ptr @_ZNK4Node2inEj(ptr noundef nonnull align 8 dereferenceable(52) %0, i32 noundef %1) #1 comdat align 2 {
  %3 = alloca ptr, align 8
  %4 = alloca i32, align 4
  store ptr %0, ptr %3, align 8
  store i32 %1, ptr %4, align 4
  %5 = load ptr, ptr %3, align 8
  %6 = getelementptr inbounds %class.Node, ptr %5, i32 0, i32 1
  %7 = load ptr, ptr %6, align 8
  %8 = load i32, ptr %4, align 4
  %9 = zext i32 %8 to i64
  %10 = getelementptr inbounds ptr, ptr %7, i64 %9
  %11 = load ptr, ptr %10, align 8
  ret ptr %11
}

; Function Attrs: mustprogress nounwind uwtable
define hidden noundef i32 @_ZNK8ProjNode4hashEv(ptr noundef nonnull align 8 dereferenceable(57) %0) unnamed_addr #1 align 2 {
  %2 = alloca ptr, align 8
  store ptr %0, ptr %2, align 8
  %3 = load ptr, ptr %2, align 8
  %4 = call noundef ptr @_ZNK4Node2inEj(ptr noundef nonnull align 8 dereferenceable(52) %3, i32 noundef 0)
  %5 = ptrtoint ptr %4 to i64
  %6 = getelementptr inbounds %class.ProjNode, ptr %3, i32 0, i32 1
  %7 = load i32, ptr %6, align 4
  %8 = shl i32 %7, 1
  %9 = zext i32 %8 to i64
  %10 = add i64 %5, %9
  %11 = getelementptr inbounds %class.ProjNode, ptr %3, i32 0, i32 2
  %12 = load i8, ptr %11, align 8
  %13 = trunc i8 %12 to i1
  %14 = select i1 %13, i32 1, i32 0
  %15 = sext i32 %14 to i64
  %16 = add i64 %10, %15
  %17 = trunc i64 %16 to i32
  ret i32 %17
}