; Function Attrs: mustprogress nofree norecurse nosync nounwind willreturn memory(read, inaccessiblemem: none) uwtable
define hidden noundef i32 @_ZNK8ProjNode4hashEv(ptr nocapture noundef nonnull readonly align 8 dereferenceable(57) %0) unnamed_addr #3 align 2 {
  %2 = getelementptr inbounds i8, ptr %0, i64 8
  %3 = load ptr, ptr %2, align 8
  %4 = load ptr, ptr %3, align 8
  %5 = ptrtoint ptr %4 to i64
  %6 = getelementptr inbounds i8, ptr %0, i64 52
  %7 = load i32, ptr %6, align 4
  %8 = shl i32 %7, 1
  %9 = zext i32 %8 to i64
  %10 = add i64 %9, %5
  %11 = getelementptr inbounds i8, ptr %0, i64 56
  %12 = load i8, ptr %11, align 8
  %13 = and i8 %12, 1
  %14 = zext nneg i8 %13 to i64
  %15 = add i64 %10, %14
  %16 = trunc i64 %15 to i32
  ret i32 %16
}